; Function Attrs: mustprogress nofree norecurse nosync nounwind willreturn memory(none) uwtable
define hidden noundef zeroext i1 @_Z14is_explicit_gcN7GCCause5CauseE(i32 noundef %0) local_unnamed_addr #3 {
  switch i32 %0, label %2 [
    i32 23, label %5
    i32 0, label %5
  ]

2:                                                ; preds = %1
  %3 = and i32 %0, -3
  %or.cond.i = icmp eq i32 %3, 4
  %4 = icmp eq i32 %0, 7
  %spec.select.i = or i1 %4, %or.cond.i
  br label %5

5:                                                ; preds = %1, %1, %2
  %6 = phi i1 [ true, %1 ], [ %spec.select.i, %2 ], [ true, %1 ]
  ret i1 %6
}